; ModuleID = 'source-C-CXX/12/1411.c'
source_filename = "source-C-CXX/12/1411.c"
target datalayout = "e-m:e-p270:32:32-p271:32:32-p272:64:64-i64:64-f80:128-n8:16:32:64-S128"
target triple = "x86_64-pc-linux-gnu"

@.str = private unnamed_addr constant [4 x i8] c"%d\0A\00", align 1
@.str.1 = private unnamed_addr constant [3 x i8] c"%d\00", align 1
@.str.2 = private unnamed_addr constant [4 x i8] c" %d\00", align 1

; Function Attrs: nofree nounwind sspstrong uwtable
define dso_local void @main() local_unnamed_addr #0 {
  %1 = alloca i32, align 4
  %2 = alloca [20001 x i32], align 16
  %3 = bitcast i32* %1 to i8*
  call void @llvm.lifetime.start.p0i8(i64 4, i8* nonnull %3) #3
  %4 = bitcast [20001 x i32]* %2 to i8*
  call void @llvm.lifetime.start.p0i8(i64 80004, i8* nonnull %4) #3
  %5 = call i32 (i8*, ...) @__isoc99_scanf(i8* getelementptr inbounds ([4 x i8], [4 x i8]* @.str, i64 0, i64 0), i32* nonnull %1)
  %6 = load i32, i32* %1, align 4, !tbaa !5
  %7 = icmp sgt i32 %6, 0
  br i1 %7, label %20, label %55

8:                                                ; preds = %36
  %9 = icmp sgt i32 %38, 0
  br i1 %9, label %10, label %55

10:                                               ; preds = %8
  %11 = getelementptr inbounds [20001 x i32], [20001 x i32]* %2, i64 0, i64 0
  %12 = load i32, i32* %11, align 16, !tbaa !5
  %13 = icmp eq i32 %12, 0
  br i1 %13, label %17, label %14

14:                                               ; preds = %10
  %15 = call i32 (i8*, ...) @printf(i8* nonnull dereferenceable(1) getelementptr inbounds ([3 x i8], [3 x i8]* @.str.1, i64 0, i64 0), i32 %12)
  %16 = load i32, i32* %1, align 4, !tbaa !5
  br label %17

17:                                               ; preds = %14, %10
  %18 = phi i32 [ %16, %14 ], [ %38, %10 ]
  %19 = icmp sgt i32 %18, 1
  br i1 %19, label %41, label %55

20:                                               ; preds = %0, %36
  %21 = phi i64 [ %37, %36 ], [ 0, %0 ]
  %22 = getelementptr inbounds [20001 x i32], [20001 x i32]* %2, i64 0, i64 %21
  %23 = call i32 (i8*, ...) @__isoc99_scanf(i8* getelementptr inbounds ([3 x i8], [3 x i8]* @.str.1, i64 0, i64 0), i32* nonnull %22)
  %24 = icmp eq i64 %21, 0
  br i1 %24, label %36, label %25

25:                                               ; preds = %20
  %26 = load i32, i32* %22, align 4, !tbaa !5
  br label %29

27:                                               ; preds = %29
  %28 = icmp eq i64 %34, %21
  br i1 %28, label %36, label %29, !llvm.loop !9

29:                                               ; preds = %25, %27
  %30 = phi i64 [ 0, %25 ], [ %34, %27 ]
  %31 = getelementptr inbounds [20001 x i32], [20001 x i32]* %2, i64 0, i64 %30
  %32 = load i32, i32* %31, align 4, !tbaa !5
  %33 = icmp eq i32 %26, %32
  %34 = add nuw nsw i64 %30, 1
  br i1 %33, label %35, label %27

35:                                               ; preds = %29
  store i32 0, i32* %22, align 4, !tbaa !5
  br label %36

36:                                               ; preds = %27, %20, %35
  %37 = add nuw nsw i64 %21, 1
  %38 = load i32, i32* %1, align 4, !tbaa !5
  %39 = sext i32 %38 to i64
  %40 = icmp slt i64 %37, %39
  br i1 %40, label %20, label %8, !llvm.loop !11

41:                                               ; preds = %17, %50
  %42 = phi i32 [ %51, %50 ], [ %18, %17 ]
  %43 = phi i64 [ %52, %50 ], [ 1, %17 ]
  %44 = getelementptr inbounds [20001 x i32], [20001 x i32]* %2, i64 0, i64 %43
  %45 = load i32, i32* %44, align 4, !tbaa !5
  %46 = icmp eq i32 %45, 0
  br i1 %46, label %50, label %47

47:                                               ; preds = %41
  %48 = call i32 (i8*, ...) @printf(i8* nonnull dereferenceable(1) getelementptr inbounds ([4 x i8], [4 x i8]* @.str.2, i64 0, i64 0), i32 %45)
  %49 = load i32, i32* %1, align 4, !tbaa !5
  br label %50

50:                                               ; preds = %41, %47
  %51 = phi i32 [ %42, %41 ], [ %49, %47 ]
  %52 = add nuw nsw i64 %43, 1
  %53 = sext i32 %51 to i64
  %54 = icmp slt i64 %52, %53
  br i1 %54, label %41, label %55, !llvm.loop !12

55:                                               ; preds = %50, %0, %17, %8
  call void @llvm.lifetime.end.p0i8(i64 80004, i8* nonnull %4) #3
  call void @llvm.lifetime.end.p0i8(i64 4, i8* nonnull %3) #3
  ret void
}

; Function Attrs: argmemonly mustprogress nofree nosync nounwind willreturn
declare void @llvm.lifetime.start.p0i8(i64 immarg, i8* nocapture) #1

; Function Attrs: nofree nounwind
declare noundef i32 @__isoc99_scanf(i8* nocapture noundef readonly, ...) local_unnamed_addr #2

; Function Attrs: nofree nounwind
declare noundef i32 @printf(i8* nocapture noundef readonly, ...) local_unnamed_addr #2

; Function Attrs: argmemonly mustprogress nofree nosync nounwind willreturn
declare void @llvm.lifetime.end.p0i8(i64 immarg, i8* nocapture) #1


!llvm.module.flags = !{!0, !1, !2, !3}
!llvm.ident = !{!4}

!0 = !{i32 1, !"wchar_size", i32 4}
!1 = !{i32 7, !"PIC Level", i32 2}
!2 = !{i32 7, !"PIE Level", i32 2}
!3 = !{i32 7, !"uwtable", i32 1}
!4 = !{!"clang version 13.0.0"}
!5 = !{!6, !6, i64 0}
!6 = !{!"int", !7, i64 0}
!7 = !{!"omnipotent char", !8, i64 0}
!8 = !{!"Simple C/C++ TBAA"}
!9 = distinct !{!9, !10}
!10 = !{!"llvm.loop.mustprogress"}
!11 = distinct !{!11, !10}
!12 = distinct !{!12, !10, !13}
!13 = !{!"llvm.loop.peeled.count", i32 1}
